target datalayout = "e-m:e-p270:32:32-p271:32:32-p272:64:64-i64:64-i128:128-f80:128-n8:16:32:64-S128"
target triple = "x86_64-pc-linux-gnu"

%struct.H5O_fsinfo_t = type { i32, i32, i8, i64, i64, i64, i64, [12 x i64], i8 }

; Function Attrs: nounwind uwtable
define internal i64 @H5O__fsinfo_size(ptr noundef %0, i1 noundef zeroext %1, ptr noundef %2) #0 {
  %4 = alloca ptr, align 8
  %5 = alloca i8, align 1
  %6 = alloca ptr, align 8
  %7 = alloca ptr, align 8
  %8 = alloca i64, align 8
  store ptr %0, ptr %4, align 8
  %9 = zext i1 %1 to i8
  store i8 %9, ptr %5, align 1
  store ptr %2, ptr %6, align 8
  %10 = load ptr, ptr %6, align 8
  store ptr %10, ptr %7, align 8
  store i64 0, ptr %8, align 8
  %11 = load ptr, ptr %4, align 8
  %12 = call zeroext i8 @H5F_sizeof_size(ptr noundef %11)
  %13 = zext i8 %12 to i64
  %14 = add i64 3, %13
  %15 = load ptr, ptr %4, align 8
  %16 = call zeroext i8 @H5F_sizeof_size(ptr noundef %15)
  %17 = zext i8 %16 to i64
  %18 = add i64 %14, %17
  %19 = add i64 %18, 2
  %20 = load ptr, ptr %4, align 8
  %21 = call zeroext i8 @H5F_sizeof_addr(ptr noundef %20)
  %22 = zext i8 %21 to i64
  %23 = add i64 %19, %22
  store i64 %23, ptr %8, align 8
  %24 = load ptr, ptr %7, align 8
  %25 = getelementptr inbounds %struct.H5O_fsinfo_t, ptr %24, i32 0, i32 2
  %26 = load i8, ptr %25, align 8
  %27 = trunc i8 %26 to i1
  br i1 %27, label %28, label %35

28:                                               ; preds = %3
  %29 = load ptr, ptr %4, align 8
  %30 = call zeroext i8 @H5F_sizeof_addr(ptr noundef %29)
  %31 = zext i8 %30 to i64
  %32 = mul i64 12, %31
  %33 = load i64, ptr %8, align 8
  %34 = add i64 %33, %32
  store i64 %34, ptr %8, align 8
  br label %35

35:                                               ; preds = %28, %3
  %36 = load i64, ptr %8, align 8
  ret i64 %36
}