; Function Attrs: nounwind uwtable
define internal range(i64 5, 3831) i64 @H5O__fsinfo_size(ptr noundef %0, i1 zeroext %1, ptr nocapture noundef readonly %2) #0 {
  %4 = tail call zeroext i8 @H5F_sizeof_size(ptr noundef %0) #6
  %5 = zext i8 %4 to i64
  %6 = tail call zeroext i8 @H5F_sizeof_size(ptr noundef %0) #6
  %7 = zext i8 %6 to i64
  %8 = tail call zeroext i8 @H5F_sizeof_addr(ptr noundef %0) #6
  %9 = zext i8 %8 to i64
  %10 = add nuw nsw i64 %5, 5
  %11 = add nuw nsw i64 %10, %7
  %12 = add nuw nsw i64 %11, %9
  %13 = getelementptr inbounds i8, ptr %2, i64 8
  %14 = load i8, ptr %13, align 8
  %15 = trunc i8 %14 to i1
  br i1 %15, label %16, label %21

16:                                               ; preds = %3
  %17 = tail call zeroext i8 @H5F_sizeof_addr(ptr noundef %0) #6
  %18 = zext i8 %17 to i64
  %19 = mul nuw nsw i64 %18, 12
  %20 = add nuw nsw i64 %19, %12
  br label %21

21:                                               ; preds = %16, %3
  %.0 = phi i64 [ %20, %16 ], [ %12, %3 ]
  ret i64 %.0
}